; Function Attrs: nounwind uwtable
define internal fastcc noundef zeroext i1 @ReadRegister(ptr noundef %0, i32 noundef range(i32 10748158, 10879231) %1, i1 noundef zeroext %2) unnamed_addr #0 {
  %4 = alloca [7 x i8], align 1
  call void @llvm.lifetime.start.p0(i64 7, ptr nonnull %4) #7
  store i8 23, ptr %4, align 1
  %5 = getelementptr inbounds nuw i8, ptr %0, i64 40
  %6 = load i8, ptr %5, align 8, !range !5, !noundef !6
  %7 = or disjoint i8 %6, 4
  %8 = getelementptr inbounds nuw i8, ptr %4, i64 1
  store i8 %7, ptr %8, align 1
  %9 = lshr i32 %1, 16
  %10 = trunc nuw i32 %9 to i8
  %11 = getelementptr inbounds nuw i8, ptr %4, i64 2
  store i8 %10, ptr %11, align 1
  %12 = lshr i32 %1, 8
  %13 = trunc i32 %12 to i8
  %14 = getelementptr inbounds nuw i8, ptr %4, i64 3
  store i8 %13, ptr %14, align 1
  %15 = trunc i32 %1 to i8
  %16 = getelementptr inbounds nuw i8, ptr %4, i64 4
  store i8 %15, ptr %16, align 1
  %17 = getelementptr inbounds nuw i8, ptr %4, i64 5
  store i8 0, ptr %17, align 1
  %18 = getelementptr inbounds nuw i8, ptr %4, i64 6
  store i8 2, ptr %18, align 1
  br i1 %2, label %19, label %25

19:                                               ; preds = %3
  %20 = load ptr, ptr %0, align 8
  %21 = getelementptr inbounds nuw i8, ptr %20, i64 128
  %22 = load ptr, ptr %21, align 8
  %23 = call i32 @SDL_hid_write_REAL(ptr noundef %22, ptr noundef nonnull %4, i64 noundef 7) #7
  %24 = icmp sgt i32 %23, -1
  br i1 %24, label %30, label %WriteOutput.exit.thread

25:                                               ; preds = %3
  %26 = tail call zeroext i1 @SDL_HIDAPI_LockRumble() #7
  br i1 %26, label %WriteOutput.exit, label %WriteOutput.exit.thread

WriteOutput.exit:                                 ; preds = %25
  %27 = load ptr, ptr %0, align 8
  %28 = call i32 @SDL_HIDAPI_SendRumbleAndUnlock(ptr noundef %27, ptr noundef nonnull %4, i32 noundef 7) #7
  %29 = icmp sgt i32 %28, -1
  br i1 %29, label %ReadInputSync.exit.thread, label %WriteOutput.exit.thread

30:                                               ; preds = %19
  %31 = call i64 @SDL_GetTicks_REAL() #7
  %32 = add i64 %31, 250
  %33 = getelementptr inbounds nuw i8, ptr %0, i64 44
  br label %.split.us.i

.split.us.i:                                      ; preds = %.split.us.i.backedge, %30
  %34 = load ptr, ptr %0, align 8
  %35 = getelementptr inbounds nuw i8, ptr %34, i64 136
  %36 = call i32 @SDL_GetAtomicInt_REAL(ptr noundef nonnull %35) #7
  %37 = icmp sgt i32 %36, 0
  br i1 %37, label %.thread.us.i, label %ReadInput.exit.us.i

ReadInput.exit.us.i:                              ; preds = %.split.us.i
  %38 = load ptr, ptr %0, align 8
  %39 = getelementptr inbounds nuw i8, ptr %38, i64 128
  %40 = load ptr, ptr %39, align 8
  %41 = call i32 @SDL_hid_read_timeout_REAL(ptr noundef %40, ptr noundef nonnull %33, i64 noundef 22, i32 noundef 0) #7
  %.not.us.i = icmp eq i32 %41, -1
  br i1 %.not.us.i, label %ReadInputSync.exit, label %42

42:                                               ; preds = %ReadInput.exit.us.i
  %43 = icmp sgt i32 %41, 0
  br i1 %43, label %44, label %.thread.us.i

44:                                               ; preds = %42
  %45 = load i8, ptr %33, align 4
  %46 = icmp eq i8 %45, 33
  br i1 %46, label %ReadInputSync.exit.thread, label %.split.us.i.backedge

.thread.us.i:                                     ; preds = %42, %.split.us.i
  %47 = call i64 @SDL_GetTicks_REAL() #7
  %.not10.us.i = icmp ult i64 %47, %32
  br i1 %.not10.us.i, label %48, label %ReadInputSync.exit

48:                                               ; preds = %.thread.us.i
  call void @SDL_Delay_REAL(i32 noundef 1) #7
  br label %.split.us.i.backedge

.split.us.i.backedge:                             ; preds = %48, %44
  br label %.split.us.i, !llvm.loop !11

ReadInputSync.exit:                               ; preds = %ReadInput.exit.us.i, %.thread.us.i
  %49 = call zeroext i1 (ptr, ...) @SDL_SetError_REAL(ptr noundef nonnull @.str.1) #7
  br label %WriteOutput.exit.thread

ReadInputSync.exit.thread:                        ; preds = %44, %WriteOutput.exit
  br label %WriteOutput.exit.thread

WriteOutput.exit.thread:                          ; preds = %25, %ReadInputSync.exit, %19, %WriteOutput.exit, %ReadInputSync.exit.thread
  %.0 = phi i1 [ true, %ReadInputSync.exit.thread ], [ false, %WriteOutput.exit ], [ false, %ReadInputSync.exit ], [ false, %19 ], [ false, %25 ]
  call void @llvm.lifetime.end.p0(i64 7, ptr nonnull %4) #7
  ret i1 %.0
}